; Function Attrs: mustprogress nofree norecurse nosync nounwind willreturn memory(read, argmem: readwrite, inaccessiblemem: none) uwtable
define internal noundef i32 @opt_trust_madvise_ctl(ptr nocapture readnone %tsd, ptr nocapture readnone %mib, i64 %miblen, ptr noundef writeonly %oldp, ptr noundef %oldlenp, ptr noundef readnone %newp, i64 noundef %newlen) #10 {
entry:
  %oldval = alloca i8, align 1
  %cmp = icmp ne ptr %newp, null
  %cmp1 = icmp ne i64 %newlen, 0
  %or.cond = or i1 %cmp, %cmp1
  br i1 %or.cond, label %label_return, label %do.end

do.end:                                           ; preds = %entry
  %0 = load i8, ptr @opt_trust_madvise, align 1
  %1 = and i8 %0, 1
  store i8 %1, ptr %oldval, align 1
  %cmp3 = icmp ne ptr %oldp, null
  %cmp4 = icmp ne ptr %oldlenp, null
  %or.cond1 = and i1 %cmp3, %cmp4
  br i1 %or.cond1, label %if.then5, label %label_return

if.then5:                                         ; preds = %do.end
  %2 = load i64, ptr %oldlenp, align 8
  switch i64 %2, label %cond.end [
    i64 1, label %if.end9
    i64 0, label %cond.false
  ]

cond.false:                                       ; preds = %if.then5
  br label %cond.end

cond.end:                                         ; preds = %if.then5, %cond.false
  %cond = phi i64 [ 0, %cond.false ], [ 1, %if.then5 ]
  call void @llvm.memcpy.p0.p0.i64(ptr nonnull align 1 %oldp, ptr nonnull align 1 %oldval, i64 %cond, i1 false)
  store i64 %cond, ptr %oldlenp, align 8
  br label %label_return

if.end9:                                          ; preds = %if.then5
  store i8 %1, ptr %oldp, align 1
  br label %label_return

label_return:                                     ; preds = %if.end9, %do.end, %entry, %cond.end
  %ret.0 = phi i32 [ 22, %cond.end ], [ 1, %entry ], [ 0, %do.end ], [ 0, %if.end9 ]
  ret i32 %ret.0
}